(dp1
S'a'
(lp2
S'AH'
p3
aS'AE'
p4
ag3
aS'AO'
p5
aS'AW'
p6
aS'AY'
p7
asS'c'
(lp8
S'K'
aS'CH'
p9
asS'b'
(lp10
S'B'
asS'e'
(lp11
S'IY'
p12
aS'IH'
p13
aS'EH'
p14
aS'ER'
p15
aS'EY'
p16
asS'd'
(lp17
S'D'
aS'DH'
p18
asS'g'
(lp19
S'G'
asS'f'
(lp20
S'F'
asS'i'
(lp21
g12
ag13
asS'h'
(lp22
S'HH'
p23
asS'k'
(lp24
S'K'
asS'j'
(lp25
S'JH'
p26
asS'm'
(lp27
S'M'
asS'l'
(lp28
S'L'
asS'o'
(lp29
S'OW'
p30
aS'OY'
p31
asS'n'
(lp32
S'N'
aS'NG'
p33
asS'q'
(lp34
S'K'
asS'p'
(lp35
S'P'
asS's'
(lp36
S'S'
aS'SH'
p37
asS'r'
(lp38
S'R'
asS'u'
(lp39
S'UH'
p40
aS'UW'
p41
asS't'
(lp42
S'T'
aS'TH'
p43
ag37
asS'w'
(lp44
S'W'
asS'v'
(lp45
S'V'
asS'y'
(lp46
S'Y'
asS'x'
(lp47
g37
aS'EX'
p48
asS'z'
(lp49
S'Z'
aS'ZH'
p50
as.